#include <math.h>
#include <stdio.h>
#include <stdlib.h>
#include <string.h>

void main()
{
int i,n,now,a[100],j=1,s;
scanf("%d",&n);
scanf("%d",&a[0]);
for(i=1;i<n;i++)
{
scanf("%d",&now);
for(s=0;s<j;s++)
	{
		if (now==a[s])  break;
		if (now!=a[s]&&(s==j-1)) {a[j]=now;j++;}
	}
}
for(i=0;i<j-1;i++)
printf("%d,",a[i]);
printf("%d",a[j-1]);
}