; ModuleID = '53/13.c'
source_filename = "53/13.c"
target datalayout = "e-m:e-p270:32:32-p271:32:32-p272:64:64-i64:64-f80:128-n8:16:32:64-S128"
target triple = "x86_64-pc-linux-gnu"

@.str = private unnamed_addr constant [3 x i8] c"%d\00", align 1
@.str.1 = private unnamed_addr constant [4 x i8] c"%d,\00", align 1

; Function Attrs: noinline nounwind uwtable
define dso_local void @main() #0 {
  %1 = alloca i32, align 4
  %2 = alloca i32, align 4
  %3 = alloca i32, align 4
  %4 = alloca [100 x i32], align 16
  %5 = alloca i32, align 4
  %6 = alloca i32, align 4
  store i32 1, i32* %5, align 4
  %7 = call i32 (i8*, ...) @__isoc99_scanf(i8* getelementptr inbounds ([3 x i8], [3 x i8]* @.str, i64 0, i64 0), i32* %2)
  %8 = getelementptr inbounds [100 x i32], [100 x i32]* %4, i64 0, i64 0
  %9 = call i32 (i8*, ...) @__isoc99_scanf(i8* getelementptr inbounds ([3 x i8], [3 x i8]* @.str, i64 0, i64 0), i32* %8)
  store i32 1, i32* %1, align 4
  br label %10

10:                                               ; preds = %52, %0
  %11 = load i32, i32* %1, align 4
  %12 = load i32, i32* %2, align 4
  %13 = icmp slt i32 %11, %12
  br i1 %13, label %14, label %55

14:                                               ; preds = %10
  %15 = call i32 (i8*, ...) @__isoc99_scanf(i8* getelementptr inbounds ([3 x i8], [3 x i8]* @.str, i64 0, i64 0), i32* %3)
  store i32 0, i32* %6, align 4
  br label %16

16:                                               ; preds = %48, %14
  %17 = load i32, i32* %6, align 4
  %18 = load i32, i32* %5, align 4
  %19 = icmp slt i32 %17, %18
  br i1 %19, label %20, label %51

20:                                               ; preds = %16
  %21 = load i32, i32* %3, align 4
  %22 = load i32, i32* %6, align 4
  %23 = sext i32 %22 to i64
  %24 = getelementptr inbounds [100 x i32], [100 x i32]* %4, i64 0, i64 %23
  %25 = load i32, i32* %24, align 4
  %26 = icmp eq i32 %21, %25
  br i1 %26, label %27, label %28

27:                                               ; preds = %20
  br label %51

28:                                               ; preds = %20
  %29 = load i32, i32* %3, align 4
  %30 = load i32, i32* %6, align 4
  %31 = sext i32 %30 to i64
  %32 = getelementptr inbounds [100 x i32], [100 x i32]* %4, i64 0, i64 %31
  %33 = load i32, i32* %32, align 4
  %34 = icmp ne i32 %29, %33
  br i1 %34, label %35, label %47

35:                                               ; preds = %28
  %36 = load i32, i32* %6, align 4
  %37 = load i32, i32* %5, align 4
  %38 = sub nsw i32 %37, 1
  %39 = icmp eq i32 %36, %38
  br i1 %39, label %40, label %47

40:                                               ; preds = %35
  %41 = load i32, i32* %3, align 4
  %42 = load i32, i32* %5, align 4
  %43 = sext i32 %42 to i64
  %44 = getelementptr inbounds [100 x i32], [100 x i32]* %4, i64 0, i64 %43
  store i32 %41, i32* %44, align 4
  %45 = load i32, i32* %5, align 4
  %46 = add nsw i32 %45, 1
  store i32 %46, i32* %5, align 4
  br label %47

47:                                               ; preds = %40, %35, %28
  br label %48

48:                                               ; preds = %47
  %49 = load i32, i32* %6, align 4
  %50 = add nsw i32 %49, 1
  store i32 %50, i32* %6, align 4
  br label %16

51:                                               ; preds = %27, %16
  br label %52

52:                                               ; preds = %51
  %53 = load i32, i32* %1, align 4
  %54 = add nsw i32 %53, 1
  store i32 %54, i32* %1, align 4
  br label %10

55:                                               ; preds = %10
  store i32 0, i32* %1, align 4
  br label %56

56:                                               ; preds = %67, %55
  %57 = load i32, i32* %1, align 4
  %58 = load i32, i32* %5, align 4
  %59 = sub nsw i32 %58, 1
  %60 = icmp slt i32 %57, %59
  br i1 %60, label %61, label %70

61:                                               ; preds = %56
  %62 = load i32, i32* %1, align 4
  %63 = sext i32 %62 to i64
  %64 = getelementptr inbounds [100 x i32], [100 x i32]* %4, i64 0, i64 %63
  %65 = load i32, i32* %64, align 4
  %66 = call i32 (i8*, ...) @printf(i8* getelementptr inbounds ([4 x i8], [4 x i8]* @.str.1, i64 0, i64 0), i32 %65)
  br label %67

67:                                               ; preds = %61
  %68 = load i32, i32* %1, align 4
  %69 = add nsw i32 %68, 1
  store i32 %69, i32* %1, align 4
  br label %56

70:                                               ; preds = %56
  %71 = load i32, i32* %5, align 4
  %72 = sub nsw i32 %71, 1
  %73 = sext i32 %72 to i64
  %74 = getelementptr inbounds [100 x i32], [100 x i32]* %4, i64 0, i64 %73
  %75 = load i32, i32* %74, align 4
  %76 = call i32 (i8*, ...) @printf(i8* getelementptr inbounds ([3 x i8], [3 x i8]* @.str, i64 0, i64 0), i32 %75)
  ret void
}

declare dso_local i32 @__isoc99_scanf(i8*, ...) #1

declare dso_local i32 @printf(i8*, ...) #1


!llvm.module.flags = !{!0}
!llvm.ident = !{!1}

!0 = !{i32 1, !"wchar_size", i32 4}
!1 = !{!"clang version 10.0.0-4ubuntu1 "}
